; Function Attrs: mustprogress nofree norecurse nosync nounwind willreturn memory(argmem: write) uwtable
define void @_ZN4YAML12EmitterState8EndedDocEv(ptr noundef nonnull writeonly align 8 captures(none) dereferenceable(224) initializes((208, 209), (210, 212)) %0) local_unnamed_addr #0 align 2 {
  %2 = getelementptr inbounds nuw i8, ptr %0, i64 208
  store i8 0, ptr %2, align 8, !tbaa !93
  %3 = getelementptr inbounds nuw i8, ptr %0, i64 210
  store i8 0, ptr %3, align 2, !tbaa !95
  %4 = getelementptr inbounds nuw i8, ptr %0, i64 211
  store i8 0, ptr %4, align 1, !tbaa !96
  ret void
}